target datalayout = "e-m:e-p270:32:32-p271:32:32-p272:64:64-i64:64-i128:128-f80:128-n8:16:32:64-S128"
target triple = "x86_64-pc-linux-gnu"

%struct.WOLFSSL_BUFFER_INFO = type { ptr, i32 }
%struct.DecodedCert = type { ptr, i32, i32, i32, i32, i32, i32, i32, i32, i32, i32, ptr, ptr, ptr, ptr, ptr, [20 x i8], [20 x i8], ptr, ptr, i32, i8, [256 x i8], [256 x i8], i32, ptr, i32, i32, ptr, [32 x i8], i32, ptr, i32, i32, ptr, i32, ptr, i32, ptr, i32, [20 x i8], i32, [20 x i8], i32, i8, i8, i8, i16, i8, i32, ptr, i32, ptr, i32, ptr, i32, ptr, i32, i8, ptr, %struct.SignatureCtx, i32, i32, i32 }
%struct.SignatureCtx = type { ptr, ptr, ptr, ptr, i32, %union.anon, i32, i32, i32, i32, i32, i32, i32, i32 }
%union.anon = type { ptr }
%struct.DerBuffer = type { ptr, ptr, i32, i32, i32 }
%struct.WOLFSSL_X509 = type { i32, i32, %struct.WOLFSSL_ASN1_TIME, %struct.WOLFSSL_ASN1_TIME, %struct.WOLFSSL_BUFFER_INFO, i32, ptr, %struct.WOLFSSL_BUFFER_INFO, i32, ptr, i32, ptr, ptr, i8, i8, [32 x i8], [256 x i8], %struct.WOLFSSL_X509_NAME, %struct.WOLFSSL_X509_NAME }
%struct.WOLFSSL_ASN1_TIME = type { [32 x i8], i32, i32 }
%struct.WOLFSSL_X509_NAME = type { ptr, i32, i32, [256 x i8], ptr }

; Function Attrs: nounwind uwtable
define i32 @wolfSSL_X509_check_host(ptr noundef %0, ptr noundef %1, i64 noundef %2, i32 noundef %3, ptr noundef %4) #0 {
  %6 = alloca i32, align 4
  %7 = alloca ptr, align 8
  %8 = alloca ptr, align 8
  %9 = alloca i64, align 8
  %10 = alloca i32, align 4
  %11 = alloca ptr, align 8
  %12 = alloca i32, align 4
  %13 = alloca i64, align 8
  %14 = alloca [1 x %struct.DecodedCert], align 16
  %15 = alloca i32, align 4
  store ptr %0, ptr %7, align 8, !tbaa !296
  store ptr %1, ptr %8, align 8, !tbaa !21
  store i64 %2, ptr %9, align 8, !tbaa !22
  store i32 %3, ptr %10, align 4, !tbaa !7
  store ptr %4, ptr %11, align 8, !tbaa !235
  call void @llvm.lifetime.start.p0(i64 4, ptr %12) #9
  call void @llvm.lifetime.start.p0(i64 8, ptr %13) #9
  call void @llvm.lifetime.start.p0(i64 1024, ptr %14) #9
  br label %16

16:                                               ; preds = %5
  br label %17

17:                                               ; preds = %16
  br label %18

18:                                               ; preds = %17
  %19 = load ptr, ptr %7, align 8, !tbaa !296
  %20 = icmp eq ptr %19, null
  br i1 %20, label %24, label %21

21:                                               ; preds = %18
  %22 = load ptr, ptr %8, align 8, !tbaa !21
  %23 = icmp eq ptr %22, null
  br i1 %23, label %24, label %28

24:                                               ; preds = %21, %18
  br label %25

25:                                               ; preds = %24
  br label %26

26:                                               ; preds = %25
  br label %27

27:                                               ; preds = %26
  store i32 0, ptr %6, align 4
  store i32 1, ptr %15, align 4
  br label %127

28:                                               ; preds = %21
  %29 = load i32, ptr %10, align 4, !tbaa !7
  %30 = and i32 %29, 2
  %31 = icmp ne i32 %30, 0
  br i1 %31, label %32, label %36

32:                                               ; preds = %28
  br label %33

33:                                               ; preds = %32
  br label %34

34:                                               ; preds = %33
  br label %35

35:                                               ; preds = %34
  store i32 0, ptr %6, align 4
  store i32 1, ptr %15, align 4
  br label %127

36:                                               ; preds = %28
  %37 = load i32, ptr %10, align 4, !tbaa !7
  %38 = and i32 %37, 4
  %39 = icmp ne i32 %38, 0
  br i1 %39, label %40, label %44

40:                                               ; preds = %36
  br label %41

41:                                               ; preds = %40
  br label %42

42:                                               ; preds = %41
  br label %43

43:                                               ; preds = %42
  store i32 0, ptr %6, align 4
  store i32 1, ptr %15, align 4
  br label %127

44:                                               ; preds = %36
  %45 = load i32, ptr %10, align 4, !tbaa !7
  %46 = and i32 %45, 8
  %47 = icmp ne i32 %46, 0
  br i1 %47, label %48, label %52

48:                                               ; preds = %44
  br label %49

49:                                               ; preds = %48
  br label %50

50:                                               ; preds = %49
  br label %51

51:                                               ; preds = %50
  store i32 0, ptr %6, align 4
  store i32 1, ptr %15, align 4
  br label %127

52:                                               ; preds = %44
  %53 = getelementptr inbounds [1 x %struct.DecodedCert], ptr %14, i64 0, i64 0
  %54 = load ptr, ptr %7, align 8, !tbaa !296
  %55 = getelementptr inbounds nuw %struct.WOLFSSL_X509, ptr %54, i32 0, i32 11
  %56 = load ptr, ptr %55, align 8, !tbaa !298
  %57 = getelementptr inbounds nuw %struct.DerBuffer, ptr %56, i32 0, i32 0
  %58 = load ptr, ptr %57, align 8, !tbaa !38
  %59 = load ptr, ptr %7, align 8, !tbaa !296
  %60 = getelementptr inbounds nuw %struct.WOLFSSL_X509, ptr %59, i32 0, i32 11
  %61 = load ptr, ptr %60, align 8, !tbaa !298
  %62 = getelementptr inbounds nuw %struct.DerBuffer, ptr %61, i32 0, i32 2
  %63 = load i32, ptr %62, align 8, !tbaa !40
  call void @InitDecodedCert(ptr noundef %53, ptr noundef %58, i32 noundef %63, ptr noundef null)
  %64 = getelementptr inbounds [1 x %struct.DecodedCert], ptr %14, i64 0, i64 0
  %65 = call i32 @ParseCertRelative(ptr noundef %64, i32 noundef 0, i32 noundef 0, ptr noundef null, ptr noundef null)
  store i32 %65, ptr %12, align 4, !tbaa !7
  %66 = load i32, ptr %12, align 4, !tbaa !7
  %67 = icmp ne i32 %66, 0
  br i1 %67, label %68, label %69

68:                                               ; preds = %52
  br label %121

69:                                               ; preds = %52
  %70 = load i64, ptr %9, align 8, !tbaa !22
  %71 = icmp eq i64 %70, 0
  br i1 %71, label %72, label %75

72:                                               ; preds = %69
  %73 = load ptr, ptr %8, align 8, !tbaa !21
  %74 = call i64 @strlen(ptr noundef %73) #10
  store i64 %74, ptr %9, align 8, !tbaa !22
  br label %101

75:                                               ; preds = %69
  store i64 0, ptr %13, align 8, !tbaa !22
  br label %76

76:                                               ; preds = %97, %75
  %77 = load i64, ptr %13, align 8, !tbaa !22
  %78 = load i64, ptr %9, align 8, !tbaa !22
  %79 = icmp ugt i64 %78, 1
  br i1 %79, label %80, label %83

80:                                               ; preds = %76
  %81 = load i64, ptr %9, align 8, !tbaa !22
  %82 = sub i64 %81, 1
  br label %85

83:                                               ; preds = %76
  %84 = load i64, ptr %9, align 8, !tbaa !22
  br label %85

85:                                               ; preds = %83, %80
  %86 = phi i64 [ %82, %80 ], [ %84, %83 ]
  %87 = icmp ult i64 %77, %86
  br i1 %87, label %88, label %100

88:                                               ; preds = %85
  %89 = load ptr, ptr %8, align 8, !tbaa !21
  %90 = load i64, ptr %13, align 8, !tbaa !22
  %91 = getelementptr inbounds nuw i8, ptr %89, i64 %90
  %92 = load i8, ptr %91, align 1, !tbaa !20
  %93 = sext i8 %92 to i32
  %94 = icmp eq i32 %93, 0
  br i1 %94, label %95, label %96

95:                                               ; preds = %88
  store i32 -1, ptr %12, align 4, !tbaa !7
  br label %121

96:                                               ; preds = %88
  br label %97

97:                                               ; preds = %96
  %98 = load i64, ptr %13, align 8, !tbaa !22
  %99 = add i64 %98, 1
  store i64 %99, ptr %13, align 8, !tbaa !22
  br label %76, !llvm.loop !302

100:                                              ; preds = %85
  br label %101

101:                                              ; preds = %100, %72
  %102 = load i64, ptr %9, align 8, !tbaa !22
  %103 = icmp ugt i64 %102, 1
  br i1 %103, label %104, label %115

104:                                              ; preds = %101
  %105 = load ptr, ptr %8, align 8, !tbaa !21
  %106 = load i64, ptr %9, align 8, !tbaa !22
  %107 = sub i64 %106, 1
  %108 = getelementptr inbounds nuw i8, ptr %105, i64 %107
  %109 = load i8, ptr %108, align 1, !tbaa !20
  %110 = sext i8 %109 to i32
  %111 = icmp eq i32 %110, 0
  br i1 %111, label %112, label %115

112:                                              ; preds = %104
  %113 = load i64, ptr %9, align 8, !tbaa !22
  %114 = add i64 %113, -1
  store i64 %114, ptr %9, align 8, !tbaa !22
  br label %115

115:                                              ; preds = %112, %104, %101
  %116 = getelementptr inbounds [1 x %struct.DecodedCert], ptr %14, i64 0, i64 0
  %117 = load ptr, ptr %8, align 8, !tbaa !21
  %118 = load i64, ptr %9, align 8, !tbaa !22
  %119 = load i32, ptr %10, align 4, !tbaa !7
  %120 = call i32 @CheckHostName(ptr noundef %116, ptr noundef %117, i64 noundef %118, i32 noundef %119)
  store i32 %120, ptr %12, align 4, !tbaa !7
  br label %121

121:                                              ; preds = %115, %95, %68
  %122 = getelementptr inbounds [1 x %struct.DecodedCert], ptr %14, i64 0, i64 0
  call void @FreeDecodedCert(ptr noundef %122)
  %123 = load i32, ptr %12, align 4, !tbaa !7
  %124 = icmp ne i32 %123, 0
  br i1 %124, label %125, label %126

125:                                              ; preds = %121
  store i32 0, ptr %6, align 4
  store i32 1, ptr %15, align 4
  br label %127

126:                                              ; preds = %121
  store i32 1, ptr %6, align 4
  store i32 1, ptr %15, align 4
  br label %127

127:                                              ; preds = %126, %125, %51, %43, %35, %27
  call void @llvm.lifetime.end.p0(i64 1024, ptr %14) #9
  call void @llvm.lifetime.end.p0(i64 8, ptr %13) #9
  call void @llvm.lifetime.end.p0(i64 4, ptr %12) #9
  %128 = load i32, ptr %6, align 4
  ret i32 %128
}