; Function Attrs: nounwind uwtable
define range(i32 0, 2) i32 @wolfSSL_X509_check_host(ptr noundef readonly captures(address_is_null) %0, ptr noundef %1, i64 noundef %2, i32 noundef %3, ptr noundef readnone captures(none) %4) local_unnamed_addr #0 {
  %6 = alloca [1 x %struct.DecodedCert], align 16
  call void @llvm.lifetime.start.p0(i64 1024, ptr nonnull %6) #22
  %7 = icmp ne ptr %0, null
  %8 = icmp ne ptr %1, null
  %or.cond.not46 = and i1 %7, %8
  %9 = and i32 %3, 14
  %10 = icmp eq i32 %9, 0
  %or.cond40 = and i1 %or.cond.not46, %10
  br i1 %or.cond40, label %11, label %39

11:                                               ; preds = %5
  %12 = getelementptr inbounds nuw i8, ptr %0, i64 160
  %13 = load ptr, ptr %12, align 8, !tbaa !266
  %14 = load ptr, ptr %13, align 8, !tbaa !32
  %15 = getelementptr inbounds nuw i8, ptr %13, i64 16
  %16 = load i32, ptr %15, align 8, !tbaa !34
  call void @InitDecodedCert(ptr noundef nonnull %6, ptr noundef %14, i32 noundef %16, ptr noundef null) #22
  %17 = call i32 @ParseCertRelative(ptr noundef nonnull %6, i32 noundef 0, i32 noundef 0, ptr noundef null, ptr noundef null) #22
  %.not35 = icmp eq i32 %17, 0
  br i1 %.not35, label %18, label %.thread

18:                                               ; preds = %11
  %19 = icmp eq i64 %2, 0
  br i1 %19, label %22, label %.preheader

.preheader:                                       ; preds = %18
  %.not36 = icmp eq i64 %2, 1
  %20 = add i64 %2, -1
  %21 = select i1 %.not36, i64 1, i64 %20
  br label %.lr.ph

22:                                               ; preds = %18
  %23 = call i64 @strlen(ptr noundef nonnull dereferenceable(1) %1) #23
  br label %.loopexit

24:                                               ; preds = %.lr.ph
  %25 = add nuw i64 %.047, 1
  %exitcond.not = icmp eq i64 %25, %21
  br i1 %exitcond.not, label %.loopexit, label %.lr.ph, !llvm.loop !270

.lr.ph:                                           ; preds = %.preheader, %24
  %.047 = phi i64 [ %25, %24 ], [ 0, %.preheader ]
  %26 = getelementptr inbounds nuw i8, ptr %1, i64 %.047
  %27 = load i8, ptr %26, align 1, !tbaa !43
  %28 = icmp eq i8 %27, 0
  br i1 %28, label %.thread, label %24

.loopexit:                                        ; preds = %24, %22
  %.028 = phi i64 [ %23, %22 ], [ %2, %24 ]
  %29 = icmp ugt i64 %.028, 1
  br i1 %29, label %30, label %36

30:                                               ; preds = %.loopexit
  %31 = getelementptr i8, ptr %1, i64 %.028
  %32 = getelementptr i8, ptr %31, i64 -1
  %33 = load i8, ptr %32, align 1, !tbaa !43
  %34 = icmp eq i8 %33, 0
  %35 = sext i1 %34 to i64
  %spec.select = add i64 %.028, %35
  br label %36

.thread:                                          ; preds = %.lr.ph, %11
  call void @FreeDecodedCert(ptr noundef nonnull %6) #22
  br label %39

36:                                               ; preds = %.loopexit, %30
  %.1 = phi i64 [ %.028, %.loopexit ], [ %spec.select, %30 ]
  %37 = call i32 @CheckHostName(ptr noundef nonnull %6, ptr noundef nonnull %1, i64 noundef %.1, i32 noundef %3) #22
  %.fr = freeze i32 %37
  %38 = icmp eq i32 %.fr, 0
  call void @FreeDecodedCert(ptr noundef nonnull %6) #22
  %spec.select43 = zext i1 %38 to i32
  br label %39

39:                                               ; preds = %36, %.thread, %5
  %.027 = phi i32 [ 0, %5 ], [ 0, %.thread ], [ %spec.select43, %36 ]
  call void @llvm.lifetime.end.p0(i64 1024, ptr nonnull %6) #22
  ret i32 %.027
}